target datalayout = "e-m:e-p270:32:32-p271:32:32-p272:64:64-i64:64-i128:128-f80:128-n8:16:32:64-S128"
target triple = "x86_64-unknown-linux-gnu"

%"class.EA::StdC::CallbackManager::CallbackVector" = type { ptr, ptr, ptr, [8 x ptr] }

@.str = private unnamed_addr constant [11 x i8] c"EACallback\00", align 1

; Function Attrs: mustprogress uwtable
define dso_local noundef ptr @_ZN2EA4StdC15CallbackManager14CallbackVector9push_backEPNS0_8CallbackE(ptr noundef nonnull align 8 dereferenceable(88) %this, ptr noundef %value) #2 align 2 {
entry:
  %this.addr = alloca ptr, align 8
  %value.addr = alloca ptr, align 8
  %oldSize = alloca i64, align 8
  %oldCapacity = alloca i64, align 8
  %newCapacity = alloca i64, align 8
  %pBegin = alloca ptr, align 8
  store ptr %this, ptr %this.addr, align 8
  store ptr %value, ptr %value.addr, align 8
  %this1 = load ptr, ptr %this.addr, align 8
  %mpEnd = getelementptr inbounds %"class.EA::StdC::CallbackManager::CallbackVector", ptr %this1, i32 0, i32 1
  %0 = load ptr, ptr %mpEnd, align 8
  %add.ptr = getelementptr inbounds ptr, ptr %0, i64 1
  %mpCapacity = getelementptr inbounds %"class.EA::StdC::CallbackManager::CallbackVector", ptr %this1, i32 0, i32 2
  %1 = load ptr, ptr %mpCapacity, align 8
  %cmp = icmp uge ptr %add.ptr, %1
  br i1 %cmp, label %if.then, label %if.end21

if.then:                                          ; preds = %entry
  %mpEnd2 = getelementptr inbounds %"class.EA::StdC::CallbackManager::CallbackVector", ptr %this1, i32 0, i32 1
  %2 = load ptr, ptr %mpEnd2, align 8
  %mpBegin = getelementptr inbounds %"class.EA::StdC::CallbackManager::CallbackVector", ptr %this1, i32 0, i32 0
  %3 = load ptr, ptr %mpBegin, align 8
  %sub.ptr.lhs.cast = ptrtoint ptr %2 to i64
  %sub.ptr.rhs.cast = ptrtoint ptr %3 to i64
  %sub.ptr.sub = sub i64 %sub.ptr.lhs.cast, %sub.ptr.rhs.cast
  %sub.ptr.div = sdiv exact i64 %sub.ptr.sub, 8
  store i64 %sub.ptr.div, ptr %oldSize, align 8
  %mpCapacity3 = getelementptr inbounds %"class.EA::StdC::CallbackManager::CallbackVector", ptr %this1, i32 0, i32 2
  %4 = load ptr, ptr %mpCapacity3, align 8
  %mpBegin4 = getelementptr inbounds %"class.EA::StdC::CallbackManager::CallbackVector", ptr %this1, i32 0, i32 0
  %5 = load ptr, ptr %mpBegin4, align 8
  %sub.ptr.lhs.cast5 = ptrtoint ptr %4 to i64
  %sub.ptr.rhs.cast6 = ptrtoint ptr %5 to i64
  %sub.ptr.sub7 = sub i64 %sub.ptr.lhs.cast5, %sub.ptr.rhs.cast6
  %sub.ptr.div8 = sdiv exact i64 %sub.ptr.sub7, 8
  store i64 %sub.ptr.div8, ptr %oldCapacity, align 8
  %6 = load i64, ptr %oldCapacity, align 8
  %cmp9 = icmp uge i64 %6, 2
  br i1 %cmp9, label %cond.true, label %cond.false

cond.true:                                        ; preds = %if.then
  %7 = load i64, ptr %oldCapacity, align 8
  %mul = mul i64 %7, 2
  br label %cond.end

cond.false:                                       ; preds = %if.then
  br label %cond.end

cond.end:                                         ; preds = %cond.false, %cond.true
  %cond = phi i64 [ %mul, %cond.true ], [ 4, %cond.false ]
  store i64 %cond, ptr %newCapacity, align 8
  %8 = load i64, ptr %newCapacity, align 8
  %9 = call { i64, i1 } @llvm.umul.with.overflow.i64(i64 %8, i64 8)
  %10 = extractvalue { i64, i1 } %9, 1
  %11 = extractvalue { i64, i1 } %9, 0
  %12 = select i1 %10, i64 -1, i64 %11
  %call = call noundef ptr @_ZnamPKcijS0_i(i64 noundef %12, ptr noundef @.str, i32 noundef 0, i32 noundef 0, ptr noundef null, i32 noundef 0)
  store ptr %call, ptr %pBegin, align 8
  %13 = load ptr, ptr %pBegin, align 8
  %mpBegin10 = getelementptr inbounds %"class.EA::StdC::CallbackManager::CallbackVector", ptr %this1, i32 0, i32 0
  %14 = load ptr, ptr %mpBegin10, align 8
  %15 = load i64, ptr %oldSize, align 8
  %mul11 = mul i64 %15, 8
  call void @llvm.memcpy.p0.p0.i64(ptr align 8 %13, ptr align 8 %14, i64 %mul11, i1 false)
  %mpBegin12 = getelementptr inbounds %"class.EA::StdC::CallbackManager::CallbackVector", ptr %this1, i32 0, i32 0
  %16 = load ptr, ptr %mpBegin12, align 8
  %mLocalBuffer = getelementptr inbounds %"class.EA::StdC::CallbackManager::CallbackVector", ptr %this1, i32 0, i32 3
  %arraydecay = getelementptr inbounds [8 x ptr], ptr %mLocalBuffer, i64 0, i64 0
  %cmp13 = icmp ne ptr %16, %arraydecay
  br i1 %cmp13, label %if.then14, label %if.end

if.then14:                                        ; preds = %cond.end
  %mpBegin15 = getelementptr inbounds %"class.EA::StdC::CallbackManager::CallbackVector", ptr %this1, i32 0, i32 0
  %17 = load ptr, ptr %mpBegin15, align 8
  %isnull = icmp eq ptr %17, null
  br i1 %isnull, label %delete.end, label %delete.notnull

delete.notnull:                                   ; preds = %if.then14
  call void @_ZdaPv(ptr noundef %17) #12
  br label %delete.end

delete.end:                                       ; preds = %delete.notnull, %if.then14
  br label %if.end

if.end:                                           ; preds = %delete.end, %cond.end
  %18 = load ptr, ptr %pBegin, align 8
  %mpBegin16 = getelementptr inbounds %"class.EA::StdC::CallbackManager::CallbackVector", ptr %this1, i32 0, i32 0
  store ptr %18, ptr %mpBegin16, align 8
  %19 = load ptr, ptr %pBegin, align 8
  %20 = load i64, ptr %oldSize, align 8
  %add.ptr17 = getelementptr inbounds ptr, ptr %19, i64 %20
  %mpEnd18 = getelementptr inbounds %"class.EA::StdC::CallbackManager::CallbackVector", ptr %this1, i32 0, i32 1
  store ptr %add.ptr17, ptr %mpEnd18, align 8
  %21 = load ptr, ptr %pBegin, align 8
  %22 = load i64, ptr %newCapacity, align 8
  %add.ptr19 = getelementptr inbounds ptr, ptr %21, i64 %22
  %mpCapacity20 = getelementptr inbounds %"class.EA::StdC::CallbackManager::CallbackVector", ptr %this1, i32 0, i32 2
  store ptr %add.ptr19, ptr %mpCapacity20, align 8
  br label %if.end21

if.end21:                                         ; preds = %if.end, %entry
  %23 = load ptr, ptr %value.addr, align 8
  %mpEnd22 = getelementptr inbounds %"class.EA::StdC::CallbackManager::CallbackVector", ptr %this1, i32 0, i32 1
  %24 = load ptr, ptr %mpEnd22, align 8
  store ptr %23, ptr %24, align 8
  %mpEnd23 = getelementptr inbounds %"class.EA::StdC::CallbackManager::CallbackVector", ptr %this1, i32 0, i32 1
  %25 = load ptr, ptr %mpEnd23, align 8
  %incdec.ptr = getelementptr inbounds ptr, ptr %25, i32 1
  store ptr %incdec.ptr, ptr %mpEnd23, align 8
  ret ptr %incdec.ptr
}