; Function Attrs: mustprogress uwtable
define dso_local noundef nonnull ptr @_ZN2EA4StdC15CallbackManager14CallbackVector9push_backEPNS0_8CallbackE(ptr noundef nonnull align 8 dereferenceable(88) %this, ptr noundef %value) local_unnamed_addr #1 align 2 {
entry:
  %mpEnd = getelementptr inbounds i8, ptr %this, i64 8
  %0 = load ptr, ptr %mpEnd, align 8
  %add.ptr = getelementptr inbounds i8, ptr %0, i64 8
  %mpCapacity = getelementptr inbounds i8, ptr %this, i64 16
  %1 = load ptr, ptr %mpCapacity, align 8
  %cmp.not = icmp ult ptr %add.ptr, %1
  br i1 %cmp.not, label %if.end21, label %if.then

if.then:                                          ; preds = %entry
  %2 = load ptr, ptr %this, align 8
  %sub.ptr.lhs.cast = ptrtoint ptr %0 to i64
  %sub.ptr.rhs.cast = ptrtoint ptr %2 to i64
  %sub.ptr.sub = sub i64 %sub.ptr.lhs.cast, %sub.ptr.rhs.cast
  %sub.ptr.lhs.cast5 = ptrtoint ptr %1 to i64
  %sub.ptr.sub7 = sub i64 %sub.ptr.lhs.cast5, %sub.ptr.rhs.cast
  %cmp9 = icmp ugt i64 %sub.ptr.sub7, 8
  %mul = ashr exact i64 %sub.ptr.sub7, 2
  %cond = select i1 %cmp9, i64 %mul, i64 4
  %3 = icmp ugt i64 %cond, 2305843009213693951
  %4 = shl i64 %cond, 3
  %5 = select i1 %3, i64 -1, i64 %4
  %call = tail call noundef ptr @_ZnamPKcijS0_i(i64 noundef %5, ptr noundef nonnull @.str, i32 noundef 0, i32 noundef 0, ptr noundef null, i32 noundef 0)
  %6 = load ptr, ptr %this, align 8
  tail call void @llvm.memcpy.p0.p0.i64(ptr align 8 %call, ptr align 8 %6, i64 %sub.ptr.sub, i1 false)
  %7 = load ptr, ptr %this, align 8
  %mLocalBuffer = getelementptr inbounds i8, ptr %this, i64 24
  %cmp13.not = icmp eq ptr %7, %mLocalBuffer
  %isnull = icmp eq ptr %7, null
  %or.cond = or i1 %cmp13.not, %isnull
  br i1 %or.cond, label %if.end, label %delete.notnull

delete.notnull:                                   ; preds = %if.then
  tail call void @_ZdaPv(ptr noundef nonnull %7) #19
  br label %if.end

if.end:                                           ; preds = %delete.notnull, %if.then
  store ptr %call, ptr %this, align 8
  %add.ptr17 = getelementptr inbounds i8, ptr %call, i64 %sub.ptr.sub
  store ptr %add.ptr17, ptr %mpEnd, align 8
  %add.ptr19 = getelementptr inbounds ptr, ptr %call, i64 %cond
  store ptr %add.ptr19, ptr %mpCapacity, align 8
  br label %if.end21

if.end21:                                         ; preds = %if.end, %entry
  %8 = phi ptr [ %add.ptr17, %if.end ], [ %0, %entry ]
  store ptr %value, ptr %8, align 8
  %9 = load ptr, ptr %mpEnd, align 8
  %incdec.ptr = getelementptr inbounds i8, ptr %9, i64 8
  store ptr %incdec.ptr, ptr %mpEnd, align 8
  ret ptr %incdec.ptr
}